target datalayout = "e-m:e-p270:32:32-p271:32:32-p272:64:64-i64:64-i128:128-f80:128-n8:16:32:64-S128"
target triple = "x86_64-pc-linux-gnu"

; Function Attrs: inlinehint nounwind uwtable
define internal i64 @constant_time_msb_s(i64 noundef %0) #2 {
  %2 = alloca i64, align 8
  store i64 %0, ptr %2, align 8, !tbaa !8
  %3 = load i64, ptr %2, align 8, !tbaa !8
  %4 = lshr i64 %3, 63
  %5 = sub i64 0, %4
  ret i64 %5
}

; Function Attrs: inlinehint nounwind uwtable
define internal i64 @constant_time_lt_s(i64 noundef %0, i64 noundef %1) #2 {
  %3 = alloca i64, align 8
  %4 = alloca i64, align 8
  store i64 %0, ptr %3, align 8, !tbaa !8
  store i64 %1, ptr %4, align 8, !tbaa !8
  %5 = load i64, ptr %3, align 8, !tbaa !8
  %6 = load i64, ptr %3, align 8, !tbaa !8
  %7 = load i64, ptr %4, align 8, !tbaa !8
  %8 = xor i64 %6, %7
  %9 = load i64, ptr %3, align 8, !tbaa !8
  %10 = load i64, ptr %4, align 8, !tbaa !8
  %11 = sub i64 %9, %10
  %12 = load i64, ptr %4, align 8, !tbaa !8
  %13 = xor i64 %11, %12
  %14 = or i64 %8, %13
  %15 = xor i64 %5, %14
  %16 = call i64 @constant_time_msb_s(i64 noundef %15)
  ret i64 %16
}

; Function Attrs: inlinehint nounwind uwtable
define internal i64 @constant_time_ge_s(i64 noundef %0, i64 noundef %1) #2 {
  %3 = alloca i64, align 8
  %4 = alloca i64, align 8
  store i64 %0, ptr %3, align 8, !tbaa !8
  store i64 %1, ptr %4, align 8, !tbaa !8
  %5 = load i64, ptr %3, align 8, !tbaa !8
  %6 = load i64, ptr %4, align 8, !tbaa !8
  %7 = call i64 @constant_time_lt_s(i64 noundef %5, i64 noundef %6)
  %8 = xor i64 %7, -1
  ret i64 %8
}

; Function Attrs: nounwind uwtable
define i32 @ssl3_cbc_remove_padding_and_mac(ptr noundef %0, i64 noundef %1, ptr noundef %2, ptr noundef %3, ptr noundef %4, i64 noundef %5, i64 noundef %6, ptr noundef %7) #0 {
  %9 = alloca i32, align 4
  %10 = alloca ptr, align 8
  %11 = alloca i64, align 8
  %12 = alloca ptr, align 8
  %13 = alloca ptr, align 8
  %14 = alloca ptr, align 8
  %15 = alloca i64, align 8
  %16 = alloca i64, align 8
  %17 = alloca ptr, align 8
  %18 = alloca i64, align 8
  %19 = alloca i64, align 8
  %20 = alloca i64, align 8
  %21 = alloca i32, align 4
  store ptr %0, ptr %10, align 8, !tbaa !3
  store i64 %1, ptr %11, align 8, !tbaa !8
  store ptr %2, ptr %12, align 8, !tbaa !10
  store ptr %3, ptr %13, align 8, !tbaa !12
  store ptr %4, ptr %14, align 8, !tbaa !14
  store i64 %5, ptr %15, align 8, !tbaa !8
  store i64 %6, ptr %16, align 8, !tbaa !8
  store ptr %7, ptr %17, align 8, !tbaa !16
  call void @llvm.lifetime.start.p0(i64 8, ptr %18) #6
  call void @llvm.lifetime.start.p0(i64 8, ptr %19) #6
  call void @llvm.lifetime.start.p0(i64 8, ptr %20) #6
  %22 = load i64, ptr %16, align 8, !tbaa !8
  %23 = add i64 1, %22
  store i64 %23, ptr %20, align 8, !tbaa !8
  %24 = load i64, ptr %20, align 8, !tbaa !8
  %25 = load ptr, ptr %10, align 8, !tbaa !3
  %26 = load i64, ptr %25, align 8, !tbaa !8
  %27 = icmp ugt i64 %24, %26
  br i1 %27, label %28, label %29

28:                                               ; preds = %8
  store i32 0, ptr %9, align 4
  store i32 1, ptr %21, align 4
  br label %66

29:                                               ; preds = %8
  %30 = load ptr, ptr %12, align 8, !tbaa !10
  %31 = load ptr, ptr %10, align 8, !tbaa !3
  %32 = load i64, ptr %31, align 8, !tbaa !8
  %33 = sub i64 %32, 1
  %34 = getelementptr inbounds nuw i8, ptr %30, i64 %33
  %35 = load i8, ptr %34, align 1, !tbaa !18
  %36 = zext i8 %35 to i64
  store i64 %36, ptr %18, align 8, !tbaa !8
  %37 = load ptr, ptr %10, align 8, !tbaa !3
  %38 = load i64, ptr %37, align 8, !tbaa !8
  %39 = load i64, ptr %18, align 8, !tbaa !8
  %40 = load i64, ptr %20, align 8, !tbaa !8
  %41 = add i64 %39, %40
  %42 = call i64 @constant_time_ge_s(i64 noundef %38, i64 noundef %41)
  store i64 %42, ptr %19, align 8, !tbaa !8
  %43 = load i64, ptr %15, align 8, !tbaa !8
  %44 = load i64, ptr %18, align 8, !tbaa !8
  %45 = add i64 %44, 1
  %46 = call i64 @constant_time_ge_s(i64 noundef %43, i64 noundef %45)
  %47 = load i64, ptr %19, align 8, !tbaa !8
  %48 = and i64 %47, %46
  store i64 %48, ptr %19, align 8, !tbaa !8
  %49 = load i64, ptr %19, align 8, !tbaa !8
  %50 = load i64, ptr %18, align 8, !tbaa !8
  %51 = add i64 %50, 1
  %52 = and i64 %49, %51
  %53 = load ptr, ptr %10, align 8, !tbaa !3
  %54 = load i64, ptr %53, align 8, !tbaa !8
  %55 = sub i64 %54, %52
  store i64 %55, ptr %53, align 8, !tbaa !8
  %56 = load ptr, ptr %10, align 8, !tbaa !3
  %57 = load i64, ptr %11, align 8, !tbaa !8
  %58 = load ptr, ptr %12, align 8, !tbaa !10
  %59 = load ptr, ptr %13, align 8, !tbaa !12
  %60 = load ptr, ptr %14, align 8, !tbaa !14
  %61 = load i64, ptr %15, align 8, !tbaa !8
  %62 = load i64, ptr %16, align 8, !tbaa !8
  %63 = load i64, ptr %19, align 8, !tbaa !8
  %64 = load ptr, ptr %17, align 8, !tbaa !16
  %65 = call i32 @ssl3_cbc_copy_mac(ptr noundef %56, i64 noundef %57, ptr noundef %58, ptr noundef %59, ptr noundef %60, i64 noundef %61, i64 noundef %62, i64 noundef %63, ptr noundef %64)
  store i32 %65, ptr %9, align 4
  store i32 1, ptr %21, align 4
  br label %66

66:                                               ; preds = %29, %28
  call void @llvm.lifetime.end.p0(i64 8, ptr %20) #6
  call void @llvm.lifetime.end.p0(i64 8, ptr %19) #6
  call void @llvm.lifetime.end.p0(i64 8, ptr %18) #6
  %67 = load i32, ptr %9, align 4
  ret i32 %67
}