; Function Attrs: nounwind uwtable
define range(i32 0, 2) i32 @ssl3_cbc_remove_padding_and_mac(ptr noundef captures(none) %0, i64 noundef %1, ptr noundef %2, ptr noundef captures(address_is_null) %3, ptr noundef captures(address_is_null) %4, i64 noundef %5, i64 noundef %6, ptr noundef %7) local_unnamed_addr #0 {
  %9 = add i64 %6, 1
  %10 = load i64, ptr %0, align 8, !tbaa !3
  %11 = icmp ugt i64 %9, %10
  br i1 %11, label %33, label %12

12:                                               ; preds = %8
  %13 = getelementptr i8, ptr %2, i64 %10
  %14 = getelementptr i8, ptr %13, i64 -1
  %15 = load i8, ptr %14, align 1, !tbaa !7
  %16 = zext i8 %15 to i64
  %17 = add i64 %9, %16
  %18 = xor i64 %17, %10
  %19 = sub i64 %10, %17
  %20 = xor i64 %19, %17
  %21 = or i64 %20, %18
  %22 = xor i64 %21, %10
  %23 = add nuw nsw i64 %16, 1
  %24 = sub i64 %5, %23
  %25 = xor i64 %5, -1
  %26 = and i64 %24, %25
  %27 = or i64 %22, %26
  %28 = icmp sgt i64 %27, -1
  %29 = sext i1 %28 to i64
  %30 = select i1 %28, i64 %23, i64 0
  %31 = sub i64 %10, %30
  store i64 %31, ptr %0, align 8, !tbaa !3
  %32 = tail call fastcc i32 @ssl3_cbc_copy_mac(ptr noundef nonnull %0, i64 noundef %1, ptr noundef %2, ptr noundef %3, ptr noundef %4, i64 noundef %5, i64 noundef %6, i64 noundef %29, ptr noundef %7)
  br label %33

33:                                               ; preds = %8, %12
  %.0 = phi i32 [ %32, %12 ], [ 0, %8 ]
  ret i32 %.0
}